; Function Attrs: mustprogress nofree norecurse nosync nounwind willreturn memory(argmem: read) uwtable
define dso_local ptr @bipbuf_peek(ptr noundef readonly captures(ret: address, provenance) %0, i32 noundef %1) local_unnamed_addr #0 {
  %3 = load i64, ptr %0, align 8, !tbaa !8
  %4 = getelementptr inbounds nuw i8, ptr %0, i64 8
  %5 = load i32, ptr %4, align 8, !tbaa !4
  %6 = add i32 %5, %1
  %7 = zext i32 %6 to i64
  %8 = icmp ult i64 %3, %7
  br i1 %8, label %16, label %9

9:                                                ; preds = %2
  %10 = getelementptr inbounds nuw i8, ptr %0, i64 12
  %11 = load i32, ptr %10, align 4, !tbaa !4
  %.not = icmp eq i32 %5, %11
  br i1 %.not, label %16, label %12

12:                                               ; preds = %9
  %13 = getelementptr inbounds nuw i8, ptr %0, i64 24
  %14 = zext i32 %5 to i64
  %15 = getelementptr inbounds nuw i8, ptr %13, i64 %14
  br label %16

16:                                               ; preds = %9, %2, %12
  %.0 = phi ptr [ %15, %12 ], [ null, %2 ], [ null, %9 ]
  ret ptr %.0
}